
firmware.elf:     file format elf32-littleriscv


Disassembly of section .text:

00000000 <_start>:
   0:	00004137          	lui	sp,0x4
   4:	090000ef          	jal	94 <main>
   8:	0000006f          	j	8 <_start+0x8>

0000000c <putchar>:
   c:	fe010113          	addi	sp,sp,-32 # 3fe0 <main+0x3f4c>
  10:	00812e23          	sw	s0,28(sp)
  14:	02010413          	addi	s0,sp,32
  18:	00050793          	mv	a5,a0
  1c:	fef407a3          	sb	a5,-17(s0)
  20:	200007b7          	lui	a5,0x20000
  24:	fef44703          	lbu	a4,-17(s0)
  28:	00e7a023          	sw	a4,0(a5) # 20000000 <main+0x1fffff6c>
  2c:	00000013          	nop
  30:	01c12403          	lw	s0,28(sp)
  34:	02010113          	addi	sp,sp,32
  38:	00008067          	ret

0000003c <print>:
  3c:	fe010113          	addi	sp,sp,-32
  40:	00112e23          	sw	ra,28(sp)
  44:	00812c23          	sw	s0,24(sp)
  48:	02010413          	addi	s0,sp,32
  4c:	fea42623          	sw	a0,-20(s0)
  50:	0200006f          	j	70 <print+0x34>
  54:	fec42783          	lw	a5,-20(s0)
  58:	0007c783          	lbu	a5,0(a5)
  5c:	00078513          	mv	a0,a5
  60:	fadff0ef          	jal	c <putchar>
  64:	fec42783          	lw	a5,-20(s0)
  68:	00178793          	addi	a5,a5,1
  6c:	fef42623          	sw	a5,-20(s0)
  70:	fec42783          	lw	a5,-20(s0)
  74:	0007c783          	lbu	a5,0(a5)
  78:	fc079ee3          	bnez	a5,54 <print+0x18>
  7c:	00000013          	nop
  80:	00000013          	nop
  84:	01c12083          	lw	ra,28(sp)
  88:	01812403          	lw	s0,24(sp)
  8c:	02010113          	addi	sp,sp,32
  90:	00008067          	ret

00000094 <main>:
  94:	fe010113          	addi	sp,sp,-32
  98:	00112e23          	sw	ra,28(sp)
  9c:	00812c23          	sw	s0,24(sp)
  a0:	02010413          	addi	s0,sp,32
  a4:	11400513          	li	a0,276
  a8:	f95ff0ef          	jal	3c <print>
  ac:	13800513          	li	a0,312
  b0:	f8dff0ef          	jal	3c <print>
  b4:	400007b7          	lui	a5,0x40000
  b8:	09000713          	li	a4,144
  bc:	00e7a023          	sw	a4,0(a5) # 40000000 <main+0x3fffff6c>
  c0:	fe042623          	sw	zero,-20(s0)
  c4:	0140006f          	j	d8 <main+0x44>
  c8:	00000013          	nop
  cc:	fec42783          	lw	a5,-20(s0)
  d0:	00178793          	addi	a5,a5,1
  d4:	fef42623          	sw	a5,-20(s0)
  d8:	fec42703          	lw	a4,-20(s0)
  dc:	00900793          	li	a5,9
  e0:	fee7d4e3          	bge	a5,a4,c8 <main+0x34>
  e4:	400007b7          	lui	a5,0x40000
  e8:	0007a783          	lw	a5,0(a5) # 40000000 <main+0x3fffff6c>
  ec:	fef42423          	sw	a5,-24(s0)
  f0:	fe842703          	lw	a4,-24(s0)
  f4:	00c00793          	li	a5,12
  f8:	00f71863          	bne	a4,a5,108 <main+0x74>
  fc:	15400513          	li	a0,340
 100:	f3dff0ef          	jal	3c <print>
 104:	00c0006f          	j	110 <main+0x7c>
 108:	16c00513          	li	a0,364
 10c:	f31ff0ef          	jal	3c <print>
 110:	0000006f          	j	110 <main+0x7c>
